target datalayout = "e-m:e-p270:32:32-p271:32:32-p272:64:64-i64:64-i128:128-f80:128-n8:16:32:64-S128"
target triple = "x86_64-pc-linux-gnu"

; Function Attrs: nounwind uwtable
define internal void @gray8aToPlanar8(ptr noundef %0, ptr noundef %1, ptr noundef %2, ptr noundef %3, ptr noundef %4, i32 noundef %5, ptr noundef %6) #0 {
  %8 = alloca ptr, align 8
  %9 = alloca ptr, align 8
  %10 = alloca ptr, align 8
  %11 = alloca ptr, align 8
  %12 = alloca ptr, align 8
  %13 = alloca i32, align 4
  %14 = alloca ptr, align 8
  %15 = alloca i32, align 4
  %16 = alloca ptr, align 8
  store ptr %0, ptr %8, align 8, !tbaa !4
  store ptr %1, ptr %9, align 8, !tbaa !4
  store ptr %2, ptr %10, align 8, !tbaa !4
  store ptr %3, ptr %11, align 8, !tbaa !4
  store ptr %4, ptr %12, align 8, !tbaa !4
  store i32 %5, ptr %13, align 4, !tbaa !9
  store ptr %6, ptr %14, align 8, !tbaa !4
  call void @llvm.lifetime.start.p0(i64 4, ptr %15) #11
  store i32 0, ptr %15, align 4, !tbaa !9
  br label %17

17:                                               ; preds = %70, %7
  %18 = load i32, ptr %15, align 4, !tbaa !9
  %19 = load i32, ptr %13, align 4, !tbaa !9
  %20 = icmp slt i32 %18, %19
  br i1 %20, label %22, label %21

21:                                               ; preds = %17
  call void @llvm.lifetime.end.p0(i64 4, ptr %15) #11
  br label %73

22:                                               ; preds = %17
  call void @llvm.lifetime.start.p0(i64 8, ptr %16) #11
  %23 = load ptr, ptr %14, align 8, !tbaa !4
  %24 = load ptr, ptr %8, align 8, !tbaa !4
  %25 = load i32, ptr %15, align 4, !tbaa !9
  %26 = shl i32 %25, 1
  %27 = sext i32 %26 to i64
  %28 = getelementptr inbounds i8, ptr %24, i64 %27
  %29 = load i8, ptr %28, align 1, !tbaa !67
  %30 = zext i8 %29 to i32
  %31 = mul nsw i32 %30, 4
  %32 = sext i32 %31 to i64
  %33 = getelementptr inbounds i8, ptr %23, i64 %32
  store ptr %33, ptr %16, align 8, !tbaa !4
  %34 = load ptr, ptr %16, align 8, !tbaa !4
  %35 = getelementptr inbounds i8, ptr %34, i64 0
  %36 = load i8, ptr %35, align 1, !tbaa !67
  %37 = load ptr, ptr %9, align 8, !tbaa !4
  %38 = load i32, ptr %15, align 4, !tbaa !9
  %39 = sext i32 %38 to i64
  %40 = getelementptr inbounds i8, ptr %37, i64 %39
  store i8 %36, ptr %40, align 1, !tbaa !67
  %41 = load ptr, ptr %16, align 8, !tbaa !4
  %42 = getelementptr inbounds i8, ptr %41, i64 1
  %43 = load i8, ptr %42, align 1, !tbaa !67
  %44 = load ptr, ptr %10, align 8, !tbaa !4
  %45 = load i32, ptr %15, align 4, !tbaa !9
  %46 = sext i32 %45 to i64
  %47 = getelementptr inbounds i8, ptr %44, i64 %46
  store i8 %43, ptr %47, align 1, !tbaa !67
  %48 = load ptr, ptr %16, align 8, !tbaa !4
  %49 = getelementptr inbounds i8, ptr %48, i64 2
  %50 = load i8, ptr %49, align 1, !tbaa !67
  %51 = load ptr, ptr %11, align 8, !tbaa !4
  %52 = load i32, ptr %15, align 4, !tbaa !9
  %53 = sext i32 %52 to i64
  %54 = getelementptr inbounds i8, ptr %51, i64 %53
  store i8 %50, ptr %54, align 1, !tbaa !67
  %55 = load ptr, ptr %12, align 8, !tbaa !4
  %56 = icmp ne ptr %55, null
  br i1 %56, label %57, label %69

57:                                               ; preds = %22
  %58 = load ptr, ptr %8, align 8, !tbaa !4
  %59 = load i32, ptr %15, align 4, !tbaa !9
  %60 = shl i32 %59, 1
  %61 = add nsw i32 %60, 1
  %62 = sext i32 %61 to i64
  %63 = getelementptr inbounds i8, ptr %58, i64 %62
  %64 = load i8, ptr %63, align 1, !tbaa !67
  %65 = load ptr, ptr %12, align 8, !tbaa !4
  %66 = load i32, ptr %15, align 4, !tbaa !9
  %67 = sext i32 %66 to i64
  %68 = getelementptr inbounds i8, ptr %65, i64 %67
  store i8 %64, ptr %68, align 1, !tbaa !67
  br label %69

69:                                               ; preds = %57, %22
  call void @llvm.lifetime.end.p0(i64 8, ptr %16) #11
  br label %70

70:                                               ; preds = %69
  %71 = load i32, ptr %15, align 4, !tbaa !9
  %72 = add nsw i32 %71, 1
  store i32 %72, ptr %15, align 4, !tbaa !9
  br label %17, !llvm.loop !316

73:                                               ; preds = %21
  ret void
}