; Function Attrs: nofree norecurse nosync nounwind memory(argmem: readwrite) uwtable
define internal void @gray8aToPlanar8(ptr noundef readonly captures(none) %0, ptr noundef writeonly captures(none) %1, ptr noundef writeonly captures(none) %2, ptr noundef writeonly captures(none) %3, ptr noundef writeonly captures(address_is_null) %4, i32 noundef %5, ptr noundef readonly captures(none) %6) unnamed_addr #0 {
  %8 = icmp sgt i32 %5, 0
  br i1 %8, label %.lr.ph, label %._crit_edge

.lr.ph:                                           ; preds = %7
  %.not = icmp eq ptr %4, null
  %wide.trip.count26 = zext nneg i32 %5 to i64
  br i1 %.not, label %.lr.ph.split.us, label %.lr.ph.split

.lr.ph.split.us:                                  ; preds = %.lr.ph, %.lr.ph.split.us
  %indvars.iv23 = phi i64 [ %indvars.iv.next24, %.lr.ph.split.us ], [ 0, %.lr.ph ]
  %indvars.iv23.tr = trunc i64 %indvars.iv23 to i32
  %9 = shl i32 %indvars.iv23.tr, 1
  %10 = sext i32 %9 to i64
  %11 = getelementptr inbounds i8, ptr %0, i64 %10
  %12 = load i8, ptr %11, align 1, !tbaa !61
  %13 = zext i8 %12 to i64
  %14 = shl nuw nsw i64 %13, 2
  %15 = getelementptr inbounds nuw i8, ptr %6, i64 %14
  %16 = load i8, ptr %15, align 1, !tbaa !61
  %17 = getelementptr inbounds nuw i8, ptr %1, i64 %indvars.iv23
  store i8 %16, ptr %17, align 1, !tbaa !61
  %18 = getelementptr inbounds nuw i8, ptr %15, i64 1
  %19 = load i8, ptr %18, align 1, !tbaa !61
  %20 = getelementptr inbounds nuw i8, ptr %2, i64 %indvars.iv23
  store i8 %19, ptr %20, align 1, !tbaa !61
  %21 = getelementptr inbounds nuw i8, ptr %15, i64 2
  %22 = load i8, ptr %21, align 1, !tbaa !61
  %23 = getelementptr inbounds nuw i8, ptr %3, i64 %indvars.iv23
  store i8 %22, ptr %23, align 1, !tbaa !61
  %indvars.iv.next24 = add nuw nsw i64 %indvars.iv23, 1
  %exitcond27.not = icmp eq i64 %indvars.iv.next24, %wide.trip.count26
  br i1 %exitcond27.not, label %._crit_edge, label %.lr.ph.split.us, !llvm.loop !308

._crit_edge:                                      ; preds = %.lr.ph.split, %.lr.ph.split.us, %7
  ret void

.lr.ph.split:                                     ; preds = %.lr.ph, %.lr.ph.split
  %indvars.iv = phi i64 [ %indvars.iv.next, %.lr.ph.split ], [ 0, %.lr.ph ]
  %indvars.iv.tr = trunc i64 %indvars.iv to i32
  %24 = shl i32 %indvars.iv.tr, 1
  %25 = sext i32 %24 to i64
  %26 = getelementptr inbounds i8, ptr %0, i64 %25
  %27 = load i8, ptr %26, align 1, !tbaa !61
  %28 = zext i8 %27 to i64
  %29 = shl nuw nsw i64 %28, 2
  %30 = getelementptr inbounds nuw i8, ptr %6, i64 %29
  %31 = load i8, ptr %30, align 1, !tbaa !61
  %32 = getelementptr inbounds nuw i8, ptr %1, i64 %indvars.iv
  store i8 %31, ptr %32, align 1, !tbaa !61
  %33 = getelementptr inbounds nuw i8, ptr %30, i64 1
  %34 = load i8, ptr %33, align 1, !tbaa !61
  %35 = getelementptr inbounds nuw i8, ptr %2, i64 %indvars.iv
  store i8 %34, ptr %35, align 1, !tbaa !61
  %36 = getelementptr inbounds nuw i8, ptr %30, i64 2
  %37 = load i8, ptr %36, align 1, !tbaa !61
  %38 = getelementptr inbounds nuw i8, ptr %3, i64 %indvars.iv
  store i8 %37, ptr %38, align 1, !tbaa !61
  %39 = getelementptr i8, ptr %26, i64 1
  %40 = load i8, ptr %39, align 1, !tbaa !61
  %41 = getelementptr inbounds nuw i8, ptr %4, i64 %indvars.iv
  store i8 %40, ptr %41, align 1, !tbaa !61
  %indvars.iv.next = add nuw nsw i64 %indvars.iv, 1
  %exitcond.not = icmp eq i64 %indvars.iv.next, %wide.trip.count26
  br i1 %exitcond.not, label %._crit_edge, label %.lr.ph.split, !llvm.loop !308
}